
build/output.elf:     file format elf32-littlearm


Disassembly of section .text:

00008000 <convert.part.0>:
    8000:	e3510000 	cmp	r1, #0
    8004:	e92d43f0 	push	{r4, r5, r6, r7, r8, r9, lr}
    8008:	0a000024 	beq	80a0 <convert.part.0+0xa0>
    800c:	e30c8ccd 	movw	r8, #52429	; 0xcccd
    8010:	e34c8ccc 	movt	r8, #52428	; 0xcccc
    8014:	e2426001 	sub	r6, r2, #1
    8018:	e3a0c000 	mov	ip, #0
    801c:	e3a0900a 	mov	r9, #10
    8020:	ea000000 	b	8028 <convert.part.0+0x28>
    8024:	e1a0c007 	mov	ip, r7
    8028:	e73ef011 	udiv	lr, r1, r0
    802c:	e28c7001 	add	r7, ip, #1
    8030:	e0611e90 	mls	r1, r0, lr, r1
    8034:	e6ef1071 	uxtb	r1, r1
    8038:	e3510009 	cmp	r1, #9
    803c:	e2813030 	add	r3, r1, #48	; 0x30
    8040:	e0854891 	umull	r4, r5, r1, r8
    8044:	e6ef3073 	uxtb	r3, r3
    8048:	81a031a5 	lsrhi	r3, r5, #3
    804c:	80631399 	mlshi	r3, r9, r3, r1
    8050:	e1a0100e 	mov	r1, lr
    8054:	82833041 	addhi	r3, r3, #65	; 0x41
    8058:	86ef3073 	uxtbhi	r3, r3
    805c:	e35e0000 	cmp	lr, #0
    8060:	e5e63001 	strb	r3, [r6, #1]!
    8064:	1affffee 	bne	8024 <convert.part.0+0x24>
    8068:	e082c00c 	add	ip, r2, ip
    806c:	e152000c 	cmp	r2, ip
    8070:	2a000006 	bcs	8090 <convert.part.0+0x90>
    8074:	e1a03002 	mov	r3, r2
    8078:	e5d31000 	ldrb	r1, [r3]
    807c:	e5dc0000 	ldrb	r0, [ip]
    8080:	e4c30001 	strb	r0, [r3], #1
    8084:	e44c1001 	strb	r1, [ip], #-1
    8088:	e153000c 	cmp	r3, ip
    808c:	3afffff9 	bcc	8078 <convert.part.0+0x78>
    8090:	e3a03000 	mov	r3, #0
    8094:	e1a00003 	mov	r0, r3
    8098:	e7c23007 	strb	r3, [r2, r7]
    809c:	e8bd83f0 	pop	{r4, r5, r6, r7, r8, r9, pc}
    80a0:	e1a07001 	mov	r7, r1
    80a4:	e3e0c000 	mvn	ip, #0
    80a8:	eaffffee 	b	8068 <convert.part.0+0x68>

000080ac <digit_to_char>:
    80ac:	e3500009 	cmp	r0, #9
    80b0:	92800030 	addls	r0, r0, #48	; 0x30
    80b4:	830c2ccd 	movwhi	r2, #52429	; 0xcccd
    80b8:	83a0100a 	movhi	r1, #10
    80bc:	834c2ccc 	movthi	r2, #52428	; 0xcccc
    80c0:	80832290 	umullhi	r2, r3, r0, r2
    80c4:	81a031a3 	lsrhi	r3, r3, #3
    80c8:	80600391 	mlshi	r0, r1, r3, r0
    80cc:	82800041 	addhi	r0, r0, #65	; 0x41
    80d0:	e6ef0070 	uxtb	r0, r0
    80d4:	e12fff1e 	bx	lr

000080d8 <convert>:
    80d8:	e2513000 	subs	r3, r1, #0
    80dc:	e92d4010 	push	{r4, lr}
    80e0:	e1a04002 	mov	r4, r2
    80e4:	0a000002 	beq	80f4 <convert+0x1c>
    80e8:	ebffffc4 	bl	8000 <convert.part.0>
    80ec:	e1a00004 	mov	r0, r4
    80f0:	e8bd8010 	pop	{r4, pc}
    80f4:	e3a02030 	mov	r2, #48	; 0x30
    80f8:	e5c43001 	strb	r3, [r4, #1]
    80fc:	e1a00004 	mov	r0, r4
    8100:	e5c42000 	strb	r2, [r4]
    8104:	e8bd8010 	pop	{r4, pc}

00008108 <to_binary_str>:
    8108:	e3500000 	cmp	r0, #0
    810c:	e92d4010 	push	{r4, lr}
    8110:	e1a04001 	mov	r4, r1
    8114:	05c10001 	strbeq	r0, [r1, #1]
    8118:	03a03030 	moveq	r3, #48	; 0x30
    811c:	05c13000 	strbeq	r3, [r1]
    8120:	1a000001 	bne	812c <to_binary_str+0x24>
    8124:	e1a00004 	mov	r0, r4
    8128:	e8bd8010 	pop	{r4, pc}
    812c:	e1a01000 	mov	r1, r0
    8130:	e1a02004 	mov	r2, r4
    8134:	e3a00002 	mov	r0, #2
    8138:	ebffffb0 	bl	8000 <convert.part.0>
    813c:	e1a00004 	mov	r0, r4
    8140:	e8bd8010 	pop	{r4, pc}

00008144 <to_hex_str>:
    8144:	e3500000 	cmp	r0, #0
    8148:	e92d4010 	push	{r4, lr}
    814c:	e1a04001 	mov	r4, r1
    8150:	05c10001 	strbeq	r0, [r1, #1]
    8154:	03a03030 	moveq	r3, #48	; 0x30
    8158:	05c13000 	strbeq	r3, [r1]
    815c:	1a000001 	bne	8168 <to_hex_str+0x24>
    8160:	e1a00004 	mov	r0, r4
    8164:	e8bd8010 	pop	{r4, pc}
    8168:	e1a01000 	mov	r1, r0
    816c:	e1a02004 	mov	r2, r4
    8170:	e3a00010 	mov	r0, #16
    8174:	ebffffa1 	bl	8000 <convert.part.0>
    8178:	e1a00004 	mov	r0, r4
    817c:	e8bd8010 	pop	{r4, pc}

00008180 <to_decimal_str>:
    8180:	e3500000 	cmp	r0, #0
    8184:	e92d4010 	push	{r4, lr}
    8188:	e1a04001 	mov	r4, r1
    818c:	05c10001 	strbeq	r0, [r1, #1]
    8190:	03a03030 	moveq	r3, #48	; 0x30
    8194:	05c13000 	strbeq	r3, [r1]
    8198:	1a000001 	bne	81a4 <to_decimal_str+0x24>
    819c:	e1a00004 	mov	r0, r4
    81a0:	e8bd8010 	pop	{r4, pc}
    81a4:	e1a01000 	mov	r1, r0
    81a8:	e1a02004 	mov	r2, r4
    81ac:	e3a0000a 	mov	r0, #10
    81b0:	ebffff92 	bl	8000 <convert.part.0>
    81b4:	e1a00004 	mov	r0, r4
    81b8:	e8bd8010 	pop	{r4, pc}

000081bc <convert_pin_to_gpio>:
    81bc:	e6ef3070 	uxtb	r3, r0
    81c0:	e3530028 	cmp	r3, #40	; 0x28
    81c4:	930834e4 	movwls	r3, #34020	; 0x84e4
    81c8:	83a000ff 	movhi	r0, #255	; 0xff
    81cc:	93403000 	movtls	r3, #0
    81d0:	97d30000 	ldrbls	r0, [r3, r0]
    81d4:	e6af0070 	sxtb	r0, r0
    81d8:	e12fff1e 	bx	lr

000081dc <convert_gpio_to_pin>:
    81dc:	e6ef3070 	uxtb	r3, r0
    81e0:	e353001c 	cmp	r3, #28
    81e4:	930834e4 	movwls	r3, #34020	; 0x84e4
    81e8:	83a000ff 	movhi	r0, #255	; 0xff
    81ec:	93403000 	movtls	r3, #0
    81f0:	90833000 	addls	r3, r3, r0
    81f4:	95d30028 	ldrbls	r0, [r3, #40]	; 0x28
    81f8:	e6af0070 	sxtb	r0, r0
    81fc:	e12fff1e 	bx	lr

00008200 <mmio_write>:
    8200:	e5801000 	str	r1, [r0]
    8204:	e12fff1e 	bx	lr

00008208 <main>:
    8208:	e92d4010 	push	{r4, lr}
    820c:	eb000037 	bl	82f0 <init_uart>
    8210:	e30804d0 	movw	r0, #34000	; 0x84d0
    8214:	e3400000 	movt	r0, #0
    8218:	eb000095 	bl	8474 <put_string>
    821c:	e30804d0 	movw	r0, #34000	; 0x84d0
    8220:	e3400000 	movt	r0, #0
    8224:	eb000092 	bl	8474 <put_string>
    8228:	e30804d0 	movw	r0, #34000	; 0x84d0
    822c:	e3400000 	movt	r0, #0
    8230:	eb00008f 	bl	8474 <put_string>
    8234:	e30804d0 	movw	r0, #34000	; 0x84d0
    8238:	e3400000 	movt	r0, #0
    823c:	eb00008c 	bl	8474 <put_string>
    8240:	e30804d0 	movw	r0, #34000	; 0x84d0
    8244:	e3400000 	movt	r0, #0
    8248:	eb000089 	bl	8474 <put_string>
    824c:	e30804d0 	movw	r0, #34000	; 0x84d0
    8250:	e3400000 	movt	r0, #0
    8254:	eb000086 	bl	8474 <put_string>
    8258:	eafffffe 	b	8258 <main+0x50>

0000825c <wait_for_tx_slot>:
    825c:	e3a02a01 	mov	r2, #4096	; 0x1000
    8260:	e3432f20 	movt	r2, #16160	; 0x3f20
    8264:	e5923018 	ldr	r3, [r2, #24]
    8268:	e3130020 	tst	r3, #32
    826c:	1afffffc 	bne	8264 <wait_for_tx_slot+0x8>
    8270:	e12fff1e 	bx	lr

00008274 <wait_for_uart_idle>:
    8274:	e3a02a01 	mov	r2, #4096	; 0x1000
    8278:	e3432f20 	movt	r2, #16160	; 0x3f20
    827c:	e5923018 	ldr	r3, [r2, #24]
    8280:	e3130008 	tst	r3, #8
    8284:	1afffffc 	bne	827c <wait_for_uart_idle+0x8>
    8288:	e12fff1e 	bx	lr

0000828c <wait_for_rx_slot>:
    828c:	e3a02a01 	mov	r2, #4096	; 0x1000
    8290:	e3432f20 	movt	r2, #16160	; 0x3f20
    8294:	e5923018 	ldr	r3, [r2, #24]
    8298:	e3130040 	tst	r3, #64	; 0x40
    829c:	1afffffc 	bne	8294 <wait_for_rx_slot+0x8>
    82a0:	e12fff1e 	bx	lr

000082a4 <wait_for_rx_has_char>:
    82a4:	e3a02a01 	mov	r2, #4096	; 0x1000
    82a8:	e3432f20 	movt	r2, #16160	; 0x3f20
    82ac:	e5923018 	ldr	r3, [r2, #24]
    82b0:	e3130080 	tst	r3, #128	; 0x80
    82b4:	1afffffc 	bne	82ac <wait_for_rx_has_char+0x8>
    82b8:	e12fff1e 	bx	lr

000082bc <delay>:
    82bc:	e24dd008 	sub	sp, sp, #8
    82c0:	e58d0004 	str	r0, [sp, #4]
    82c4:	e59d3004 	ldr	r3, [sp, #4]
    82c8:	e3530000 	cmp	r3, #0
    82cc:	0a000005 	beq	82e8 <delay+0x2c>
    82d0:	e59d3004 	ldr	r3, [sp, #4]
    82d4:	e2433001 	sub	r3, r3, #1
    82d8:	e58d3004 	str	r3, [sp, #4]
    82dc:	e59d3004 	ldr	r3, [sp, #4]
    82e0:	e3530000 	cmp	r3, #0
    82e4:	1afffff9 	bne	82d0 <delay+0x14>
    82e8:	e28dd008 	add	sp, sp, #8
    82ec:	e12fff1e 	bx	lr

000082f0 <init_uart>:
    82f0:	e3a02000 	mov	r2, #0
    82f4:	e3432f20 	movt	r2, #16160	; 0x3f20
    82f8:	e3a03a01 	mov	r3, #4096	; 0x1000
    82fc:	e3433f20 	movt	r3, #16160	; 0x3f20
    8300:	e3a0c000 	mov	ip, #0
    8304:	e1a01003 	mov	r1, r3
    8308:	e5920004 	ldr	r0, [r2, #4]
    830c:	e3800919 	orr	r0, r0, #409600	; 0x64000
    8310:	e5820004 	str	r0, [r2, #4]
    8314:	e583c030 	str	ip, [r3, #48]	; 0x30
    8318:	e5913018 	ldr	r3, [r1, #24]
    831c:	e2133008 	ands	r3, r3, #8
    8320:	1afffffc 	bne	8318 <init_uart+0x28>
    8324:	e3a00000 	mov	r0, #0
    8328:	e3430f20 	movt	r0, #16160	; 0x3f20
    832c:	e591c02c 	ldr	ip, [r1, #44]	; 0x2c
    8330:	e3a02096 	mov	r2, #150	; 0x96
    8334:	e581c02c 	str	ip, [r1, #44]	; 0x2c
    8338:	e5803094 	str	r3, [r0, #148]	; 0x94
    833c:	e2522001 	subs	r2, r2, #1
    8340:	1afffffd 	bne	833c <init_uart+0x4c>
    8344:	e3a02000 	mov	r2, #0
    8348:	e3432f20 	movt	r2, #16160	; 0x3f20
    834c:	e3a01903 	mov	r1, #49152	; 0xc000
    8350:	e3a03096 	mov	r3, #150	; 0x96
    8354:	e5821098 	str	r1, [r2, #152]	; 0x98
    8358:	e2533001 	subs	r3, r3, #1
    835c:	1afffffd 	bne	8358 <init_uart+0x68>
    8360:	e3a01000 	mov	r1, #0
    8364:	e3431f20 	movt	r1, #16160	; 0x3f20
    8368:	e3a02a01 	mov	r2, #4096	; 0x1000
    836c:	e3432f20 	movt	r2, #16160	; 0x3f20
    8370:	e52de004 	push	{lr}		; (str lr, [sp, #-4]!)
    8374:	e3a00001 	mov	r0, #1
    8378:	e300e7ff 	movw	lr, #2047	; 0x7ff
    837c:	e3a0c01a 	mov	ip, #26
    8380:	e5813098 	str	r3, [r1, #152]	; 0x98
    8384:	e582e044 	str	lr, [r2, #68]	; 0x44
    8388:	e582c024 	str	ip, [r2, #36]	; 0x24
    838c:	e5820028 	str	r0, [r2, #40]	; 0x28
    8390:	e592302c 	ldr	r3, [r2, #44]	; 0x2c
    8394:	e3833070 	orr	r3, r3, #112	; 0x70
    8398:	e582302c 	str	r3, [r2, #44]	; 0x2c
    839c:	e5923038 	ldr	r3, [r2, #56]	; 0x38
    83a0:	e3833e7f 	orr	r3, r3, #2032	; 0x7f0
    83a4:	e3833002 	orr	r3, r3, #2
    83a8:	e5823038 	str	r3, [r2, #56]	; 0x38
    83ac:	e5923030 	ldr	r3, [r2, #48]	; 0x30
    83b0:	e3833d06 	orr	r3, r3, #384	; 0x180
    83b4:	e1833000 	orr	r3, r3, r0
    83b8:	e5823030 	str	r3, [r2, #48]	; 0x30
    83bc:	e49df004 	pop	{pc}		; (ldr pc, [sp], #4)

000083c0 <get_char>:
    83c0:	e3a02a01 	mov	r2, #4096	; 0x1000
    83c4:	e3432f20 	movt	r2, #16160	; 0x3f20
    83c8:	e5923018 	ldr	r3, [r2, #24]
    83cc:	e3130080 	tst	r3, #128	; 0x80
    83d0:	1afffffc 	bne	83c8 <get_char+0x8>
    83d4:	e3a03096 	mov	r3, #150	; 0x96
    83d8:	e2533001 	subs	r3, r3, #1
    83dc:	1afffffd 	bne	83d8 <get_char+0x18>
    83e0:	e3a03a01 	mov	r3, #4096	; 0x1000
    83e4:	e3433f20 	movt	r3, #16160	; 0x3f20
    83e8:	e5930000 	ldr	r0, [r3]
    83ec:	e20000c7 	and	r0, r0, #199	; 0xc7
    83f0:	e12fff1e 	bx	lr

000083f4 <put_char>:
    83f4:	e3a02a01 	mov	r2, #4096	; 0x1000
    83f8:	e3432f20 	movt	r2, #16160	; 0x3f20
    83fc:	e5923018 	ldr	r3, [r2, #24]
    8400:	e3130020 	tst	r3, #32
    8404:	1afffffc 	bne	83fc <put_char+0x8>
    8408:	e3a03096 	mov	r3, #150	; 0x96
    840c:	e2533001 	subs	r3, r3, #1
    8410:	1afffffd 	bne	840c <put_char+0x18>
    8414:	e3a03a01 	mov	r3, #4096	; 0x1000
    8418:	e3433f20 	movt	r3, #16160	; 0x3f20
    841c:	e5830000 	str	r0, [r3]
    8420:	e12fff1e 	bx	lr

00008424 <get_string>:
    8424:	e3510001 	cmp	r1, #1
    8428:	0a00000d 	beq	8464 <get_string+0x40>
    842c:	e3a02a01 	mov	r2, #4096	; 0x1000
    8430:	e3432f20 	movt	r2, #16160	; 0x3f20
    8434:	e5923018 	ldr	r3, [r2, #24]
    8438:	e3130080 	tst	r3, #128	; 0x80
    843c:	03a03096 	moveq	r3, #150	; 0x96
    8440:	1afffffb 	bne	8434 <get_string+0x10>
    8444:	e2533001 	subs	r3, r3, #1
    8448:	1afffffd 	bne	8444 <get_string+0x20>
    844c:	e2811001 	add	r1, r1, #1
    8450:	e5923000 	ldr	r3, [r2]
    8454:	e3510001 	cmp	r1, #1
    8458:	e3c33038 	bic	r3, r3, #56	; 0x38
    845c:	e5c03000 	strb	r3, [r0]
    8460:	1afffff3 	bne	8434 <get_string+0x10>
    8464:	e3a03000 	mov	r3, #0
    8468:	e5c03000 	strb	r3, [r0]
    846c:	e1a00003 	mov	r0, r3
    8470:	e12fff1e 	bx	lr

00008474 <put_string>:
    8474:	e5d03000 	ldrb	r3, [r0]
    8478:	e3530000 	cmp	r3, #0
    847c:	0a000005 	beq	8498 <put_string+0x24>
    8480:	e3a02a01 	mov	r2, #4096	; 0x1000
    8484:	e3432f20 	movt	r2, #16160	; 0x3f20
    8488:	e2400001 	sub	r0, r0, #1
    848c:	e5f01001 	ldrb	r1, [r0, #1]!
    8490:	e3510000 	cmp	r1, #0
    8494:	1a000005 	bne	84b0 <put_string+0x3c>
    8498:	e3a02a01 	mov	r2, #4096	; 0x1000
    849c:	e3432f20 	movt	r2, #16160	; 0x3f20
    84a0:	e5923018 	ldr	r3, [r2, #24]
    84a4:	e3130008 	tst	r3, #8
    84a8:	1afffffc 	bne	84a0 <put_string+0x2c>
    84ac:	e12fff1e 	bx	lr
    84b0:	e5923018 	ldr	r3, [r2, #24]
    84b4:	e3130020 	tst	r3, #32
    84b8:	1afffffc 	bne	84b0 <put_string+0x3c>
    84bc:	e3a03096 	mov	r3, #150	; 0x96
    84c0:	e2533001 	subs	r3, r3, #1
    84c4:	1afffffd 	bne	84c0 <put_string+0x4c>
    84c8:	e5821000 	str	r1, [r2]
    84cc:	eaffffee 	b	848c <put_string+0x18>
