   1              		.arch armv8-a
   2              		.fpu softvfp
   3              		.eabi_attribute 20, 1
   4              		.eabi_attribute 21, 1
   5              		.eabi_attribute 23, 3
   6              		.eabi_attribute 24, 1
   7              		.eabi_attribute 25, 1
   8              		.eabi_attribute 26, 1
   9              		.eabi_attribute 30, 2
  10              		.eabi_attribute 34, 1
  11              		.eabi_attribute 18, 4
  12              		.file	"debug.c"
  13              		.text
  14              		.align	2
  15              		.syntax unified
  16              		.arm
  18              	convert.part.0:
  19              		@ args = 0, pretend = 0, frame = 0
  20              		@ frame_needed = 0, uses_anonymous_args = 0
  21 0000 000051E3 		cmp	r1, #0
  22 0004 F0432DE9 		push	{r4, r5, r6, r7, r8, r9, lr}
  23 0008 2400000A 		beq	.L9
  24 000c CD8C0CE3 		movw	r8, #52429
  25 0010 CC8C4CE3 		movt	r8, 52428
  26 0014 016042E2 		sub	r6, r2, #1
  27 0018 00C0A0E3 		mov	ip, #0
  28 001c 0A90A0E3 		mov	r9, #10
  29 0020 000000EA 		b	.L5
  30              	.L10:
  31 0024 07C0A0E1 		mov	ip, r7
  32              	.L5:
  33 0028 11F03EE7 		udiv	lr, r1, r0
  34 002c 01708CE2 		add	r7, ip, #1
  35 0030 901E61E0 		mls	r1, r0, lr, r1
  36 0034 7110EFE6 		uxtb	r1, r1
  37 0038 090051E3 		cmp	r1, #9
  38 003c 303081E2 		add	r3, r1, #48
  39 0040 914885E0 		umull	r4, r5, r1, r8
  40 0044 7330EFE6 		uxtb	r3, r3
  41 0048 A531A081 		lsrhi	r3, r5, #3
  42 004c 99136380 		mlshi	r3, r9, r3, r1
  43 0050 0E10A0E1 		mov	r1, lr
  44 0054 41308382 		addhi	r3, r3, #65
  45 0058 7330EF86 		uxtbhi	r3, r3
  46 005c 00005EE3 		cmp	lr, #0
  47 0060 0130E6E5 		strb	r3, [r6, #1]!
  48 0064 EEFFFF1A 		bne	.L10
  49              	.L2:
  50 0068 0CC082E0 		add	ip, r2, ip
  51 006c 0C0052E1 		cmp	r2, ip
  52 0070 0600002A 		bcs	.L8
  53 0074 0230A0E1 		mov	r3, r2
  54              	.L7:
  55 0078 0010D3E5 		ldrb	r1, [r3]	@ zero_extendqisi2
  56 007c 0000DCE5 		ldrb	r0, [ip]	@ zero_extendqisi2
  57 0080 0100C3E4 		strb	r0, [r3], #1
  58 0084 01104CE4 		strb	r1, [ip], #-1
  59 0088 0C0053E1 		cmp	r3, ip
  60 008c F9FFFF3A 		bcc	.L7
  61              	.L8:
  62 0090 0030A0E3 		mov	r3, #0
  63 0094 0300A0E1 		mov	r0, r3
  64 0098 0730C2E7 		strb	r3, [r2, r7]
  65 009c F083BDE8 		pop	{r4, r5, r6, r7, r8, r9, pc}
  66              	.L9:
  67 00a0 0170A0E1 		mov	r7, r1
  68 00a4 00C0E0E3 		mvn	ip, #0
  69 00a8 EEFFFFEA 		b	.L2
  71              		.align	2
  72              		.global	digit_to_char
  73              		.syntax unified
  74              		.arm
  76              	digit_to_char:
  77              		@ args = 0, pretend = 0, frame = 0
  78              		@ frame_needed = 0, uses_anonymous_args = 0
  79              		@ link register save eliminated.
  80 00ac 090050E3 		cmp	r0, #9
  81 00b0 30008092 		addls	r0, r0, #48
  82 00b4 CD2C0C83 		movwhi	r2, #52429
  83 00b8 0A10A083 		movhi	r1, #10
  84 00bc CC2C4C83 		movthi	r2, 52428
  85 00c0 90228380 		umullhi	r2, r3, r0, r2
  86 00c4 A331A081 		lsrhi	r3, r3, #3
  87 00c8 91036080 		mlshi	r0, r1, r3, r0
  88 00cc 41008082 		addhi	r0, r0, #65
  89 00d0 7000EFE6 		uxtb	r0, r0
  90 00d4 1EFF2FE1 		bx	lr
  92              		.align	2
  93              		.global	convert
  94              		.syntax unified
  95              		.arm
  97              	convert:
  98              		@ args = 0, pretend = 0, frame = 0
  99              		@ frame_needed = 0, uses_anonymous_args = 0
 100 00d8 003051E2 		subs	r3, r1, #0
 101 00dc 10402DE9 		push	{r4, lr}
 102 00e0 0240A0E1 		mov	r4, r2
 103 00e4 0200000A 		beq	.L19
 104 00e8 C4FFFFEB 		bl	convert.part.0
 105 00ec 0400A0E1 		mov	r0, r4
 106 00f0 1080BDE8 		pop	{r4, pc}
 107              	.L19:
 108 00f4 3020A0E3 		mov	r2, #48
 109 00f8 0130C4E5 		strb	r3, [r4, #1]
 110 00fc 0400A0E1 		mov	r0, r4
 111 0100 0020C4E5 		strb	r2, [r4]
 112 0104 1080BDE8 		pop	{r4, pc}
 114              		.align	2
 115              		.global	to_binary_str
 116              		.syntax unified
 117              		.arm
 119              	to_binary_str:
 120              		@ args = 0, pretend = 0, frame = 0
 121              		@ frame_needed = 0, uses_anonymous_args = 0
 122 0108 000050E3 		cmp	r0, #0
 123 010c 10402DE9 		push	{r4, lr}
 124 0110 0140A0E1 		mov	r4, r1
 125 0114 0100C105 		strbeq	r0, [r1, #1]
 126 0118 3030A003 		moveq	r3, #48
 127 011c 0030C105 		strbeq	r3, [r1]
 128 0120 0100001A 		bne	.L26
 129 0124 0400A0E1 		mov	r0, r4
 130 0128 1080BDE8 		pop	{r4, pc}
 131              	.L26:
 132 012c 0010A0E1 		mov	r1, r0
 133 0130 0420A0E1 		mov	r2, r4
 134 0134 0200A0E3 		mov	r0, #2
 135 0138 B0FFFFEB 		bl	convert.part.0
 136 013c 0400A0E1 		mov	r0, r4
 137 0140 1080BDE8 		pop	{r4, pc}
 139              		.align	2
 140              		.global	to_hex_str
 141              		.syntax unified
 142              		.arm
 144              	to_hex_str:
 145              		@ args = 0, pretend = 0, frame = 0
 146              		@ frame_needed = 0, uses_anonymous_args = 0
 147 0144 000050E3 		cmp	r0, #0
 148 0148 10402DE9 		push	{r4, lr}
 149 014c 0140A0E1 		mov	r4, r1
 150 0150 0100C105 		strbeq	r0, [r1, #1]
 151 0154 3030A003 		moveq	r3, #48
 152 0158 0030C105 		strbeq	r3, [r1]
 153 015c 0100001A 		bne	.L31
 154 0160 0400A0E1 		mov	r0, r4
 155 0164 1080BDE8 		pop	{r4, pc}
 156              	.L31:
 157 0168 0010A0E1 		mov	r1, r0
 158 016c 0420A0E1 		mov	r2, r4
 159 0170 1000A0E3 		mov	r0, #16
 160 0174 A1FFFFEB 		bl	convert.part.0
 161 0178 0400A0E1 		mov	r0, r4
 162 017c 1080BDE8 		pop	{r4, pc}
 164              		.align	2
 165              		.global	to_decimal_str
 166              		.syntax unified
 167              		.arm
 169              	to_decimal_str:
 170              		@ args = 0, pretend = 0, frame = 0
 171              		@ frame_needed = 0, uses_anonymous_args = 0
 172 0180 000050E3 		cmp	r0, #0
 173 0184 10402DE9 		push	{r4, lr}
 174 0188 0140A0E1 		mov	r4, r1
 175 018c 0100C105 		strbeq	r0, [r1, #1]
 176 0190 3030A003 		moveq	r3, #48
 177 0194 0030C105 		strbeq	r3, [r1]
 178 0198 0100001A 		bne	.L36
 179 019c 0400A0E1 		mov	r0, r4
 180 01a0 1080BDE8 		pop	{r4, pc}
 181              	.L36:
 182 01a4 0010A0E1 		mov	r1, r0
 183 01a8 0420A0E1 		mov	r2, r4
 184 01ac 0A00A0E3 		mov	r0, #10
 185 01b0 92FFFFEB 		bl	convert.part.0
 186 01b4 0400A0E1 		mov	r0, r4
 187 01b8 1080BDE8 		pop	{r4, pc}
 189              		.ident	"GCC: (Linaro GCC 5.3-2016.02) 5.3.1 20160113"
