   1              		.arch armv7-a
   2              		.eabi_attribute 28, 1
   3              		.fpu neon-vfpv4
   4              		.eabi_attribute 20, 1
   5              		.eabi_attribute 21, 1
   6              		.eabi_attribute 23, 3
   7              		.eabi_attribute 24, 1
   8              		.eabi_attribute 25, 1
   9              		.eabi_attribute 26, 1
  10              		.eabi_attribute 30, 2
  11              		.eabi_attribute 34, 1
  12              		.eabi_attribute 18, 4
  13              		.file	"uart.c"
  14              		.text
  15              		.align	2
  16              		.global	wait_for_tx_slot
  17              		.syntax unified
  18              		.arm
  20              	wait_for_tx_slot:
  21              		@ args = 0, pretend = 0, frame = 0
  22              		@ frame_needed = 0, uses_anonymous_args = 0
  23              		@ link register save eliminated.
  24 0000 012AA0E3 		mov	r2, #4096
  25 0004 202F43E3 		movt	r2, 16160
  26              	.L2:
  27 0008 183092E5 		ldr	r3, [r2, #24]
  28 000c 200013E3 		tst	r3, #32
  29 0010 FCFFFF1A 		bne	.L2
  30 0014 1EFF2FE1 		bx	lr
  32              		.align	2
  33              		.global	wait_for_uart_idle
  34              		.syntax unified
  35              		.arm
  37              	wait_for_uart_idle:
  38              		@ args = 0, pretend = 0, frame = 0
  39              		@ frame_needed = 0, uses_anonymous_args = 0
  40              		@ link register save eliminated.
  41 0018 012AA0E3 		mov	r2, #4096
  42 001c 202F43E3 		movt	r2, 16160
  43              	.L6:
  44 0020 183092E5 		ldr	r3, [r2, #24]
  45 0024 080013E3 		tst	r3, #8
  46 0028 FCFFFF1A 		bne	.L6
  47 002c 1EFF2FE1 		bx	lr
  49              		.align	2
  50              		.global	wait_for_rx_slot
  51              		.syntax unified
  52              		.arm
  54              	wait_for_rx_slot:
  55              		@ args = 0, pretend = 0, frame = 0
  56              		@ frame_needed = 0, uses_anonymous_args = 0
  57              		@ link register save eliminated.
  58 0030 012AA0E3 		mov	r2, #4096
  59 0034 202F43E3 		movt	r2, 16160
  60              	.L9:
  61 0038 183092E5 		ldr	r3, [r2, #24]
  62 003c 400013E3 		tst	r3, #64
  63 0040 FCFFFF1A 		bne	.L9
  64 0044 1EFF2FE1 		bx	lr
  66              		.align	2
  67              		.global	wait_for_rx_has_char
  68              		.syntax unified
  69              		.arm
  71              	wait_for_rx_has_char:
  72              		@ args = 0, pretend = 0, frame = 0
  73              		@ frame_needed = 0, uses_anonymous_args = 0
  74              		@ link register save eliminated.
  75 0048 012AA0E3 		mov	r2, #4096
  76 004c 202F43E3 		movt	r2, 16160
  77              	.L12:
  78 0050 183092E5 		ldr	r3, [r2, #24]
  79 0054 800013E3 		tst	r3, #128
  80 0058 FCFFFF1A 		bne	.L12
  81 005c 1EFF2FE1 		bx	lr
  83              		.align	2
  84              		.global	delay
  85              		.syntax unified
  86              		.arm
  88              	delay:
  89              		@ args = 0, pretend = 0, frame = 8
  90              		@ frame_needed = 0, uses_anonymous_args = 0
  91              		@ link register save eliminated.
  92 0060 08D04DE2 		sub	sp, sp, #8
  93 0064 04008DE5 		str	r0, [sp, #4]
  94 0068 04309DE5 		ldr	r3, [sp, #4]
  95 006c 000053E3 		cmp	r3, #0
  96 0070 0500000A 		beq	.L14
  97              	.L17:
  98 0074 04309DE5 		ldr	r3, [sp, #4]
  99 0078 013043E2 		sub	r3, r3, #1
 100 007c 04308DE5 		str	r3, [sp, #4]
 101 0080 04309DE5 		ldr	r3, [sp, #4]
 102 0084 000053E3 		cmp	r3, #0
 103 0088 F9FFFF1A 		bne	.L17
 104              	.L14:
 105 008c 08D08DE2 		add	sp, sp, #8
 106              		@ sp needed
 107 0090 1EFF2FE1 		bx	lr
 109              		.align	2
 110              		.global	init_uart
 111              		.syntax unified
 112              		.arm
 114              	init_uart:
 115              		@ args = 0, pretend = 0, frame = 0
 116              		@ frame_needed = 0, uses_anonymous_args = 0
 117              		@ link register save eliminated.
 118 0094 0020A0E3 		mov	r2, #0
 119 0098 013AA0E3 		mov	r3, #4096
 120 009c 202F43E3 		movt	r2, 16160
 121 00a0 00C0A0E3 		mov	ip, #0
 122 00a4 203F43E3 		movt	r3, 16160
 123 00a8 040092E5 		ldr	r0, [r2, #4]
 124 00ac 0310A0E1 		mov	r1, r3
 125 00b0 190980E3 		orr	r0, r0, #409600
 126 00b4 040082E5 		str	r0, [r2, #4]
 127 00b8 30C083E5 		str	ip, [r3, #48]
 128              	.L21:
 129 00bc 183091E5 		ldr	r3, [r1, #24]
 130 00c0 083013E2 		ands	r3, r3, #8
 131 00c4 FCFFFF1A 		bne	.L21
 132 00c8 2CC091E5 		ldr	ip, [r1, #44]
 133 00cc 0000A0E3 		mov	r0, #0
 134 00d0 200F43E3 		movt	r0, 16160
 135 00d4 9620A0E3 		mov	r2, #150
 136 00d8 2CC081E5 		str	ip, [r1, #44]
 137 00dc 943080E5 		str	r3, [r0, #148]
 138              	.L22:
 139 00e0 012052E2 		subs	r2, r2, #1
 140 00e4 FDFFFF1A 		bne	.L22
 141 00e8 0020A0E3 		mov	r2, #0
 142 00ec 9630A0E3 		mov	r3, #150
 143 00f0 202F43E3 		movt	r2, 16160
 144 00f4 0319A0E3 		mov	r1, #49152
 145 00f8 981082E5 		str	r1, [r2, #152]
 146              	.L23:
 147 00fc 013053E2 		subs	r3, r3, #1
 148 0100 FDFFFF1A 		bne	.L23
 149 0104 0010A0E3 		mov	r1, #0
 150 0108 012AA0E3 		mov	r2, #4096
 151 010c 201F43E3 		movt	r1, 16160
 152 0110 FFC700E3 		movw	ip, #2047
 153 0114 202F43E3 		movt	r2, 16160
 154 0118 1A00A0E3 		mov	r0, #26
 155 011c 983081E5 		str	r3, [r1, #152]
 156 0120 0130A0E3 		mov	r3, #1
 157 0124 44C082E5 		str	ip, [r2, #68]
 158 0128 240082E5 		str	r0, [r2, #36]
 159 012c 283082E5 		str	r3, [r2, #40]
 160 0130 2C3092E5 		ldr	r3, [r2, #44]
 161 0134 703083E3 		orr	r3, r3, #112
 162 0138 2C3082E5 		str	r3, [r2, #44]
 163 013c 383092E5 		ldr	r3, [r2, #56]
 164 0140 7F3E83E3 		orr	r3, r3, #2032
 165 0144 023083E3 		orr	r3, r3, #2
 166 0148 383082E5 		str	r3, [r2, #56]
 167 014c 303092E5 		ldr	r3, [r2, #48]
 168 0150 063D83E3 		orr	r3, r3, #384
 169 0154 013083E3 		orr	r3, r3, #1
 170 0158 303082E5 		str	r3, [r2, #48]
 171 015c 1EFF2FE1 		bx	lr
 173              		.align	2
 174              		.global	get_char
 175              		.syntax unified
 176              		.arm
 178              	get_char:
 179              		@ args = 0, pretend = 0, frame = 0
 180              		@ frame_needed = 0, uses_anonymous_args = 0
 181              		@ link register save eliminated.
 182 0160 9600A0E3 		mov	r0, #150
 183              	.L35:
 184 0164 010050E2 		subs	r0, r0, #1
 185 0168 FDFFFF1A 		bne	.L35
 186 016c 013AA0E3 		mov	r3, #4096
 187 0170 203F43E3 		movt	r3, 16160
 188 0174 003093E5 		ldr	r3, [r3]
 189 0178 1EFF2FE1 		bx	lr
 191              		.align	2
 192              		.global	put_char
 193              		.syntax unified
 194              		.arm
 196              	put_char:
 197              		@ args = 0, pretend = 0, frame = 0
 198              		@ frame_needed = 0, uses_anonymous_args = 0
 199              		@ link register save eliminated.
 200 017c 9630A0E3 		mov	r3, #150
 201              	.L41:
 202 0180 013053E2 		subs	r3, r3, #1
 203 0184 FDFFFF1A 		bne	.L41
 204 0188 1EFF2FE1 		bx	lr
 206              		.align	2
 207              		.global	get_string
 208              		.syntax unified
 209              		.arm
 211              	get_string:
 212              		@ args = 0, pretend = 0, frame = 0
 213              		@ frame_needed = 0, uses_anonymous_args = 0
 214              		@ link register save eliminated.
 215 018c 010051E3 		cmp	r1, #1
 216 0190 0000000A 		beq	.L45
 217              	.L47:
 218 0194 FEFFFFEA 		b	.L47
 219              	.L45:
 220 0198 0030A0E3 		mov	r3, #0
 221 019c 0030C0E5 		strb	r3, [r0]
 222 01a0 0300A0E1 		mov	r0, r3
 223 01a4 1EFF2FE1 		bx	lr
 225              		.align	2
 226              		.global	put_string
 227              		.syntax unified
 228              		.arm
 230              	put_string:
 231              		@ args = 0, pretend = 0, frame = 0
 232              		@ frame_needed = 0, uses_anonymous_args = 0
 233              		@ link register save eliminated.
 234 01a8 0030D0E5 		ldrb	r3, [r0]	@ zero_extendqisi2
 235 01ac 000053E3 		cmp	r3, #0
 236 01b0 1EFF2F01 		bxeq	lr
 237              	.L51:
 238 01b4 FEFFFFEA 		b	.L51
 240              		.ident	"GCC: (Linaro GCC 5.3-2016.02) 5.3.1 20160113"
